(dp0
S'error_test_tab'
p1
(lp2
F25.77
aF19.18
aF16.37
aF14.64
aF13.34
aF12.46
aF12.0
aF11.54
aF11.23
aF10.77
aF10.55
aF10.21
aF10.0
aF9.86
aF9.69
aF9.49
aF9.41
aF9.19
aF9.09
aF8.89
aF8.85
aF8.73
aF8.58
aF8.31
aF8.37
aF8.25
aF8.17
aF8.2
aF8.15
aF8.02
aF8.0
aF7.87
aF7.81
aF7.83
aF7.78
aF7.62
aF7.54
aF7.6
aF7.45
aF7.37
aF7.34
aF7.24
aF7.22
aF7.09
aF7.07
aF6.96
aF6.94
aF6.84
aF6.85
aF6.72
aF6.73
aF6.64
aF6.55
aF6.5
aF6.48
aF6.38
aF6.39
aF6.41
aF6.34
aF6.25
asS'error_train_tab'
p3
(lp4
F47.39333333333333
aF22.868333333333332
aF18.398333333333333
aF16.151666666666667
aF14.77
aF13.745
aF13.058333333333334
aF12.475
aF11.995
aF11.616666666666667
aF11.298333333333334
aF11.078333333333333
aF10.82
aF10.625
aF10.41
aF10.203333333333333
aF10.048333333333334
aF9.871666666666666
aF9.753333333333334
aF9.586666666666666
aF9.456666666666667
aF9.346666666666666
aF9.223333333333333
aF9.103333333333333
aF9.013333333333334
aF8.878333333333334
aF8.801666666666666
aF8.691666666666666
aF8.555
aF8.455
aF8.361666666666666
aF8.245
aF8.191666666666666
aF8.08
aF7.988333333333333
aF7.9383333333333335
aF7.825
aF7.723333333333334
aF7.655
aF7.566666666666666
aF7.49
aF7.406666666666666
aF7.32
aF7.236666666666666
aF7.133333333333334
aF7.045
aF6.965
aF6.895
aF6.788333333333333
aF6.751666666666667
aF6.67
aF6.625
aF6.551666666666667
aF6.488333333333333
aF6.388333333333334
aF6.315
aF6.256666666666667
aF6.198333333333333
aF6.17
aF6.086666666666667
as.