(dp0
S'error_test_tab'
p1
(lp2
F23.21
aF16.16
aF13.97
aF12.49
aF11.63
aF11.1
aF10.41
aF9.9
aF9.71
aF9.42
aF9.08
aF8.82
aF8.63
aF8.43
aF8.32
aF8.14
aF8.0
aF7.8
aF7.72
aF7.66
aF7.57
aF7.36
aF7.24
aF7.1
aF7.01
aF6.88
aF6.81
aF6.7
aF6.72
aF6.63
aF6.6
aF6.47
aF6.36
aF6.28
aF6.16
aF6.18
aF6.16
aF6.15
aF6.07
aF6.02
aF5.89
aF5.97
aF5.79
aF5.79
aF5.64
aF5.63
aF5.61
aF5.57
aF5.67
aF5.47
aF5.34
aF5.45
aF5.37
aF5.26
aF5.29
aF5.23
aF5.24
aF5.1
aF5.23
aF5.02
asS'error_train_tab'
p3
(lp4
F43.245
aF20.403333333333332
aF15.8
aF13.871666666666666
aF12.74
aF11.97
aF11.421666666666667
aF10.996666666666666
aF10.595
aF10.295
aF9.941666666666666
aF9.733333333333333
aF9.443333333333333
aF9.26
aF9.026666666666667
aF8.808333333333334
aF8.628333333333334
aF8.453333333333333
aF8.295
aF8.101666666666667
aF7.881666666666667
aF7.77
aF7.59
aF7.398333333333333
aF7.301666666666667
aF7.2
aF7.043333333333333
aF6.933333333333334
aF6.805
aF6.7
aF6.568333333333333
aF6.4783333333333335
aF6.345
aF6.286666666666667
aF6.175
aF6.053333333333334
aF5.9366666666666665
aF5.878333333333333
aF5.761666666666667
aF5.698333333333333
aF5.633333333333334
aF5.5616666666666665
aF5.45
aF5.383333333333334
aF5.323333333333333
aF5.2316666666666665
aF5.171666666666667
aF5.088333333333333
aF5.048333333333333
aF4.98
aF4.9366666666666665
aF4.881666666666667
aF4.8
aF4.7283333333333335
aF4.691666666666666
aF4.62
aF4.586666666666667
aF4.52
aF4.501666666666667
aF4.416666666666667
as.