(dp0
S'error_test_tab'
p1
(lp2
F24.29
aF16.86
aF14.33
aF12.51
aF11.64
aF10.95
aF10.58
asS'error_train_tab'
p3
(lp4
F41.63166666666667
aF21.471666666666668
aF16.415
aF14.22
aF12.938333333333333
aF12.123333333333333
aF11.558333333333334
as.