(dp0
S'error_test_tab'
p1
(lp2
F19.47
aF14.75
aF12.34
aF11.15
aF10.51
aF9.97
aF9.27
aF9.05
aF8.64
aF8.5
aF8.36
aF8.01
aF7.77
aF7.68
aF7.58
aF7.41
aF7.16
aF7.24
aF6.76
aF6.94
aF6.65
aF6.5
aF6.46
aF6.44
aF6.37
aF6.05
aF6.25
aF6.04
aF5.98
aF5.79
aF5.89
aF5.68
aF5.65
aF5.6
aF5.65
aF5.65
aF5.44
aF5.38
aF5.41
aF5.24
aF5.09
aF5.02
aF5.02
aF4.96
aF4.98
aF4.94
aF4.96
aF4.88
aF4.87
aF4.79
aF4.82
aF4.55
aF4.56
aF4.72
aF4.73
aF4.48
aF4.51
aF4.32
aF4.55
aF4.42
asS'error_train_tab'
p3
(lp4
F38.37166666666667
aF17.45
aF14.366666666666667
aF12.666666666666666
aF11.61
aF10.933333333333334
aF10.456666666666667
aF9.95
aF9.591666666666667
aF9.283333333333333
aF8.976666666666667
aF8.706666666666667
aF8.403333333333334
aF8.171666666666667
aF7.963333333333333
aF7.7
aF7.46
aF7.29
aF7.055
aF6.871666666666667
aF6.6866666666666665
aF6.493333333333333
aF6.381666666666667
aF6.245
aF6.1
aF5.955
aF5.831666666666667
aF5.711666666666667
aF5.628333333333333
aF5.5616666666666665
aF5.433333333333334
aF5.363333333333333
aF5.278333333333333
aF5.201666666666667
aF5.078333333333333
aF5.08
aF4.976666666666667
aF4.916666666666667
aF4.77
aF4.745
aF4.6466666666666665
aF4.6066666666666665
aF4.511666666666667
aF4.466666666666667
aF4.425
aF4.31
aF4.211666666666667
aF4.176666666666667
aF4.19
aF4.075
aF3.9916666666666667
aF3.9916666666666667
aF3.91
aF3.845
aF3.815
aF3.7866666666666666
aF3.7283333333333335
aF3.6466666666666665
aF3.585
aF3.56
as.