(dp0
S'error_test_tab'
p1
(lp2
F37.82
aF26.41
aF21.97
aF19.35
aF17.82
aF16.42
aF15.44
aF14.75
aF14.05
aF13.59
aF13.13
aF12.84
aF12.39
aF12.18
aF11.81
aF11.63
aF11.46
aF11.2
aF11.1
aF10.89
aF10.79
aF10.58
aF10.44
aF10.34
aF10.19
aF10.1
aF9.99
aF9.86
aF9.68
aF9.55
aF9.48
aF9.45
aF9.29
aF9.28
aF9.18
aF9.09
aF9.07
aF8.95
aF8.84
aF8.83
aF8.8
aF8.75
aF8.72
aF8.66
aF8.62
aF8.52
aF8.46
aF8.38
aF8.35
aF8.36
aF8.27
aF8.18
aF8.23
aF8.13
aF8.07
aF8.11
aF8.01
aF8.01
aF7.99
aF7.97
asS'error_train_tab'
p3
(lp4
F60.63166666666667
aF31.165
aF24.808333333333334
aF21.60333333333333
aF19.573333333333334
aF18.136666666666667
aF16.998333333333335
aF16.07
aF15.343333333333334
aF14.79
aF14.281666666666666
aF13.825
aF13.508333333333333
aF13.125
aF12.868333333333334
aF12.576666666666666
aF12.291666666666666
aF12.098333333333333
aF11.916666666666666
aF11.713333333333333
aF11.491666666666667
aF11.35
aF11.195
aF11.015
aF10.936666666666667
aF10.823333333333334
aF10.686666666666667
aF10.568333333333333
aF10.466666666666667
aF10.373333333333333
aF10.28
aF10.195
aF10.106666666666667
aF10.015
aF9.976666666666667
aF9.858333333333333
aF9.78
aF9.713333333333333
aF9.648333333333333
aF9.626666666666667
aF9.543333333333333
aF9.481666666666667
aF9.41
aF9.333333333333334
aF9.295
aF9.193333333333333
aF9.188333333333333
aF9.08
aF8.986666666666666
aF8.945
aF8.89
aF8.826666666666666
aF8.788333333333334
aF8.693333333333333
aF8.698333333333334
aF8.586666666666666
aF8.563333333333333
aF8.496666666666666
aF8.465
aF8.413333333333334
as.